; Function Attrs: mustprogress nofree nounwind willreturn memory(argmem: readwrite) uwtable
define noundef nonnull align 8 dereferenceable(322) ptr @_ZN6icu_756FormataSERKS0_(ptr noundef nonnull returned align 8 dereferenceable(322) %this, ptr noundef nonnull readonly align 8 dereferenceable(322) %that) local_unnamed_addr #6 align 2 {
entry:
  %cmp.not = icmp eq ptr %this, %that
  br i1 %cmp.not, label %if.end, label %if.then

if.then:                                          ; preds = %entry
  %validLocale = getelementptr inbounds i8, ptr %this, i64 165
  %validLocale2 = getelementptr inbounds i8, ptr %that, i64 165
  %call = tail call ptr @strcpy(ptr noundef nonnull dereferenceable(1) %validLocale, ptr noundef nonnull dereferenceable(1) %validLocale2) #13
  %actualLocale = getelementptr inbounds i8, ptr %this, i64 8
  %actualLocale5 = getelementptr inbounds i8, ptr %that, i64 8
  %call7 = tail call ptr @strcpy(ptr noundef nonnull dereferenceable(1) %actualLocale, ptr noundef nonnull dereferenceable(1) %actualLocale5) #13
  br label %if.end

if.end:                                           ; preds = %if.then, %entry
  ret ptr %this
}